target datalayout = "e-m:e-p270:32:32-p271:32:32-p272:64:64-i64:64-i128:128-f80:128-n8:16:32:64-S128"
target triple = "x86_64-unknown-linux-gnu"

%"class.dd::solver" = type { ptr, ptr, ptr, %"class.dd::solver::stats", %"struct.dd::solver::config", %"class.std::function", %class.ptr_vector, %class.ptr_vector, %class.ptr_vector, %class.vector.0, %class.ptr_vector, ptr, i8, i32, %class.svector, %class.svector }
%"class.dd::solver::stats" = type <{ i32, [4 x i8], double, i32, i32, i32, [4 x i8] }>
%"struct.dd::solver::config" = type { i32, i32, i32, i32, i32, i32, i8, i32, i32, i32, i32 }
%"class.std::function" = type { %"class.std::_Function_base", ptr }
%"class.std::_Function_base" = type { %"union.std::_Any_data", ptr }
%"union.std::_Any_data" = type { %"union.std::_Nocopy_types" }
%"union.std::_Nocopy_types" = type { { i64, i64 } }
%class.vector.0 = type { ptr }
%class.ptr_vector = type { %class.vector }
%class.vector = type { ptr }
%class.svector = type { %class.vector.1 }
%class.vector.1 = type { ptr }

@.str.11 = private unnamed_addr constant [16 x i8] c"dd.solver.steps\00", align 1
@.str.12 = private unnamed_addr constant [21 x i8] c"dd.solver.simplified\00", align 1
@.str.13 = private unnamed_addr constant [21 x i8] c"dd.solver.superposed\00", align 1
@.str.14 = private unnamed_addr constant [20 x i8] c"dd.solver.processed\00", align 1
@.str.15 = private unnamed_addr constant [17 x i8] c"dd.solver.solved\00", align 1
@.str.16 = private unnamed_addr constant [22 x i8] c"dd.solver.to_simplify\00", align 1
@.str.17 = private unnamed_addr constant [17 x i8] c"dd.solver.degree\00", align 1
@.str.18 = private unnamed_addr constant [15 x i8] c"dd.solver.size\00", align 1

; Function Attrs: mustprogress nounwind uwtable
define linkonce_odr hidden noundef i32 @_ZNK6vectorIPN2dd6solver8equationELb0EjE4sizeEv(ptr noundef nonnull align 8 dereferenceable(8) %this) #5 comdat align 2 {
entry:
  %retval = alloca i32, align 4
  %this.addr = alloca ptr, align 8
  store ptr %this, ptr %this.addr, align 8
  %this1 = load ptr, ptr %this.addr, align 8
  %m_data = getelementptr inbounds %class.vector, ptr %this1, i32 0, i32 0
  %0 = load ptr, ptr %m_data, align 8
  %cmp = icmp eq ptr %0, null
  br i1 %cmp, label %if.then, label %if.end

if.then:                                          ; preds = %entry
  store i32 0, ptr %retval, align 4
  br label %return

if.end:                                           ; preds = %entry
  %m_data2 = getelementptr inbounds %class.vector, ptr %this1, i32 0, i32 0
  %1 = load ptr, ptr %m_data2, align 8
  %arrayidx = getelementptr inbounds i32, ptr %1, i64 -1
  %2 = load i32, ptr %arrayidx, align 4
  store i32 %2, ptr %retval, align 4
  br label %return

return:                                           ; preds = %if.end, %if.then
  %3 = load i32, ptr %retval, align 4
  ret i32 %3
}

; Function Attrs: mustprogress nounwind uwtable
define linkonce_odr hidden noundef i32 @_ZNK2dd6solver5stats10simplifiedEv(ptr noundef nonnull align 8 dereferenceable(28) %this) #5 comdat align 2 {
entry:
  %this.addr = alloca ptr, align 8
  store ptr %this, ptr %this.addr, align 8
  %this1 = load ptr, ptr %this.addr, align 8
  %m_simplified = getelementptr inbounds %"class.dd::solver::stats", ptr %this1, i32 0, i32 0
  %0 = load i32, ptr %m_simplified, align 8
  ret i32 %0
}

; Function Attrs: mustprogress uwtable
define hidden void @_ZNK2dd6solver18collect_statisticsER10statistics(ptr noundef nonnull align 8 dereferenceable(208) %this, ptr noundef nonnull align 8 dereferenceable(16) %st) #4 align 2 {
entry:
  %this.addr = alloca ptr, align 8
  %st.addr = alloca ptr, align 8
  store ptr %this, ptr %this.addr, align 8
  store ptr %st, ptr %st.addr, align 8
  %this1 = load ptr, ptr %this.addr, align 8
  %0 = load ptr, ptr %st.addr, align 8
  %m_stats = getelementptr inbounds %"class.dd::solver", ptr %this1, i32 0, i32 3
  %m_compute_steps = getelementptr inbounds %"class.dd::solver::stats", ptr %m_stats, i32 0, i32 5
  %1 = load i32, ptr %m_compute_steps, align 8
  call void @_ZN10statistics6updateEPKcj(ptr noundef nonnull align 8 dereferenceable(16) %0, ptr noundef @.str.11, i32 noundef %1)
  %2 = load ptr, ptr %st.addr, align 8
  %m_stats2 = getelementptr inbounds %"class.dd::solver", ptr %this1, i32 0, i32 3
  %call = call noundef i32 @_ZNK2dd6solver5stats10simplifiedEv(ptr noundef nonnull align 8 dereferenceable(28) %m_stats2)
  call void @_ZN10statistics6updateEPKcj(ptr noundef nonnull align 8 dereferenceable(16) %2, ptr noundef @.str.12, i32 noundef %call)
  %3 = load ptr, ptr %st.addr, align 8
  %m_stats3 = getelementptr inbounds %"class.dd::solver", ptr %this1, i32 0, i32 3
  %m_superposed = getelementptr inbounds %"class.dd::solver::stats", ptr %m_stats3, i32 0, i32 4
  %4 = load i32, ptr %m_superposed, align 4
  call void @_ZN10statistics6updateEPKcj(ptr noundef nonnull align 8 dereferenceable(16) %3, ptr noundef @.str.13, i32 noundef %4)
  %5 = load ptr, ptr %st.addr, align 8
  %m_processed = getelementptr inbounds %"class.dd::solver", ptr %this1, i32 0, i32 7
  %call4 = call noundef i32 @_ZNK6vectorIPN2dd6solver8equationELb0EjE4sizeEv(ptr noundef nonnull align 8 dereferenceable(8) %m_processed)
  call void @_ZN10statistics6updateEPKcj(ptr noundef nonnull align 8 dereferenceable(16) %5, ptr noundef @.str.14, i32 noundef %call4)
  %6 = load ptr, ptr %st.addr, align 8
  %m_solved = getelementptr inbounds %"class.dd::solver", ptr %this1, i32 0, i32 6
  %call5 = call noundef i32 @_ZNK6vectorIPN2dd6solver8equationELb0EjE4sizeEv(ptr noundef nonnull align 8 dereferenceable(8) %m_solved)
  call void @_ZN10statistics6updateEPKcj(ptr noundef nonnull align 8 dereferenceable(16) %6, ptr noundef @.str.15, i32 noundef %call5)
  %7 = load ptr, ptr %st.addr, align 8
  %m_to_simplify = getelementptr inbounds %"class.dd::solver", ptr %this1, i32 0, i32 8
  %call6 = call noundef i32 @_ZNK6vectorIPN2dd6solver8equationELb0EjE4sizeEv(ptr noundef nonnull align 8 dereferenceable(8) %m_to_simplify)
  call void @_ZN10statistics6updateEPKcj(ptr noundef nonnull align 8 dereferenceable(16) %7, ptr noundef @.str.16, i32 noundef %call6)
  %8 = load ptr, ptr %st.addr, align 8
  %m_stats7 = getelementptr inbounds %"class.dd::solver", ptr %this1, i32 0, i32 3
  %m_max_expr_degree = getelementptr inbounds %"class.dd::solver::stats", ptr %m_stats7, i32 0, i32 3
  %9 = load i32, ptr %m_max_expr_degree, align 8
  call void @_ZN10statistics6updateEPKcj(ptr noundef nonnull align 8 dereferenceable(16) %8, ptr noundef @.str.17, i32 noundef %9)
  %10 = load ptr, ptr %st.addr, align 8
  %m_stats8 = getelementptr inbounds %"class.dd::solver", ptr %this1, i32 0, i32 3
  %m_max_expr_size = getelementptr inbounds %"class.dd::solver::stats", ptr %m_stats8, i32 0, i32 2
  %11 = load double, ptr %m_max_expr_size, align 8
  call void @_ZN10statistics6updateEPKcd(ptr noundef nonnull align 8 dereferenceable(16) %10, ptr noundef @.str.18, double noundef %11)
  ret void
}