; Function Attrs: mustprogress uwtable
define hidden void @_ZNK2dd6solver18collect_statisticsER10statistics(ptr nocapture noundef nonnull readonly align 8 dereferenceable(208) %this, ptr noundef nonnull align 8 dereferenceable(16) %st) local_unnamed_addr #5 align 2 {
entry:
  %m_stats = getelementptr inbounds i8, ptr %this, i64 24
  %m_compute_steps = getelementptr inbounds i8, ptr %this, i64 48
  %0 = load i32, ptr %m_compute_steps, align 8
  tail call void @_ZN10statistics6updateEPKcj(ptr noundef nonnull align 8 dereferenceable(16) %st, ptr noundef nonnull @.str.11, i32 noundef %0)
  %1 = load i32, ptr %m_stats, align 8
  tail call void @_ZN10statistics6updateEPKcj(ptr noundef nonnull align 8 dereferenceable(16) %st, ptr noundef nonnull @.str.12, i32 noundef %1)
  %m_superposed = getelementptr inbounds i8, ptr %this, i64 44
  %2 = load i32, ptr %m_superposed, align 4
  tail call void @_ZN10statistics6updateEPKcj(ptr noundef nonnull align 8 dereferenceable(16) %st, ptr noundef nonnull @.str.13, i32 noundef %2)
  %m_processed = getelementptr inbounds i8, ptr %this, i64 144
  %3 = load ptr, ptr %m_processed, align 8
  %cmp.i = icmp eq ptr %3, null
  br i1 %cmp.i, label %_ZNK6vectorIPN2dd6solver8equationELb0EjE4sizeEv.exit, label %if.end.i

if.end.i:                                         ; preds = %entry
  %arrayidx.i = getelementptr inbounds i8, ptr %3, i64 -4
  %4 = load i32, ptr %arrayidx.i, align 4
  br label %_ZNK6vectorIPN2dd6solver8equationELb0EjE4sizeEv.exit

_ZNK6vectorIPN2dd6solver8equationELb0EjE4sizeEv.exit: ; preds = %entry, %if.end.i
  %retval.0.i = phi i32 [ %4, %if.end.i ], [ 0, %entry ]
  tail call void @_ZN10statistics6updateEPKcj(ptr noundef nonnull align 8 dereferenceable(16) %st, ptr noundef nonnull @.str.14, i32 noundef %retval.0.i)
  %m_solved = getelementptr inbounds i8, ptr %this, i64 136
  %5 = load ptr, ptr %m_solved, align 8
  %cmp.i8 = icmp eq ptr %5, null
  br i1 %cmp.i8, label %_ZNK6vectorIPN2dd6solver8equationELb0EjE4sizeEv.exit12, label %if.end.i9

if.end.i9:                                        ; preds = %_ZNK6vectorIPN2dd6solver8equationELb0EjE4sizeEv.exit
  %arrayidx.i10 = getelementptr inbounds i8, ptr %5, i64 -4
  %6 = load i32, ptr %arrayidx.i10, align 4
  br label %_ZNK6vectorIPN2dd6solver8equationELb0EjE4sizeEv.exit12

_ZNK6vectorIPN2dd6solver8equationELb0EjE4sizeEv.exit12: ; preds = %_ZNK6vectorIPN2dd6solver8equationELb0EjE4sizeEv.exit, %if.end.i9
  %retval.0.i11 = phi i32 [ %6, %if.end.i9 ], [ 0, %_ZNK6vectorIPN2dd6solver8equationELb0EjE4sizeEv.exit ]
  tail call void @_ZN10statistics6updateEPKcj(ptr noundef nonnull align 8 dereferenceable(16) %st, ptr noundef nonnull @.str.15, i32 noundef %retval.0.i11)
  %m_to_simplify = getelementptr inbounds i8, ptr %this, i64 152
  %7 = load ptr, ptr %m_to_simplify, align 8
  %cmp.i13 = icmp eq ptr %7, null
  br i1 %cmp.i13, label %_ZNK6vectorIPN2dd6solver8equationELb0EjE4sizeEv.exit17, label %if.end.i14

if.end.i14:                                       ; preds = %_ZNK6vectorIPN2dd6solver8equationELb0EjE4sizeEv.exit12
  %arrayidx.i15 = getelementptr inbounds i8, ptr %7, i64 -4
  %8 = load i32, ptr %arrayidx.i15, align 4
  br label %_ZNK6vectorIPN2dd6solver8equationELb0EjE4sizeEv.exit17

_ZNK6vectorIPN2dd6solver8equationELb0EjE4sizeEv.exit17: ; preds = %_ZNK6vectorIPN2dd6solver8equationELb0EjE4sizeEv.exit12, %if.end.i14
  %retval.0.i16 = phi i32 [ %8, %if.end.i14 ], [ 0, %_ZNK6vectorIPN2dd6solver8equationELb0EjE4sizeEv.exit12 ]
  tail call void @_ZN10statistics6updateEPKcj(ptr noundef nonnull align 8 dereferenceable(16) %st, ptr noundef nonnull @.str.16, i32 noundef %retval.0.i16)
  %m_max_expr_degree = getelementptr inbounds i8, ptr %this, i64 40
  %9 = load i32, ptr %m_max_expr_degree, align 8
  tail call void @_ZN10statistics6updateEPKcj(ptr noundef nonnull align 8 dereferenceable(16) %st, ptr noundef nonnull @.str.17, i32 noundef %9)
  %m_max_expr_size = getelementptr inbounds i8, ptr %this, i64 32
  %10 = load double, ptr %m_max_expr_size, align 8
  tail call void @_ZN10statistics6updateEPKcd(ptr noundef nonnull align 8 dereferenceable(16) %st, ptr noundef nonnull @.str.18, double noundef %10)
  ret void
}